target datalayout = "e-m:e-p270:32:32-p271:32:32-p272:64:64-i64:64-i128:128-f80:128-n8:16:32:64-S128"
target triple = "x86_64-pc-linux-gnu"

%struct.opj_mutex_t = type { %union.pthread_mutex_t }
%union.pthread_mutex_t = type { %struct.__pthread_mutex_s }
%struct.__pthread_mutex_s = type { i32, i32, i32, i32, i32, i16, i16, %struct.__pthread_internal_list }
%struct.__pthread_internal_list = type { ptr, ptr }
%struct.opj_cond_t = type { %union.pthread_cond_t }
%union.pthread_cond_t = type { %struct.__pthread_cond_s }
%struct.__pthread_cond_s = type { %union.__atomic_wide_counter, %union.__atomic_wide_counter, [2 x i32], [2 x i32], i32, i32, [2 x i32] }
%union.__atomic_wide_counter = type { i64 }
%struct.opj_thread_pool_t = type { ptr, i32, ptr, ptr, i32, ptr, i32, ptr, i32, ptr, i32 }

; Function Attrs: nounwind uwtable
define hidden void @opj_mutex_unlock(ptr noundef %0) #0 {
  %2 = alloca ptr, align 8
  store ptr %0, ptr %2, align 8, !tbaa !3
  %3 = load ptr, ptr %2, align 8, !tbaa !3
  %4 = getelementptr inbounds nuw %struct.opj_mutex_t, ptr %3, i32 0, i32 0
  %5 = call i32 @pthread_mutex_unlock(ptr noundef %4) #4
  ret void
}

; Function Attrs: nounwind uwtable
define hidden void @opj_cond_wait(ptr noundef %0, ptr noundef %1) #0 {
  %3 = alloca ptr, align 8
  %4 = alloca ptr, align 8
  store ptr %0, ptr %3, align 8, !tbaa !8
  store ptr %1, ptr %4, align 8, !tbaa !3
  %5 = load ptr, ptr %3, align 8, !tbaa !8
  %6 = getelementptr inbounds nuw %struct.opj_cond_t, ptr %5, i32 0, i32 0
  %7 = load ptr, ptr %4, align 8, !tbaa !3
  %8 = getelementptr inbounds nuw %struct.opj_mutex_t, ptr %7, i32 0, i32 0
  %9 = call i32 @pthread_cond_wait(ptr noundef %6, ptr noundef %8)
  ret void
}

; Function Attrs: nounwind uwtable
define hidden void @opj_mutex_lock(ptr noundef %0) #0 {
  %2 = alloca ptr, align 8
  store ptr %0, ptr %2, align 8, !tbaa !3
  %3 = load ptr, ptr %2, align 8, !tbaa !3
  %4 = getelementptr inbounds nuw %struct.opj_mutex_t, ptr %3, i32 0, i32 0
  %5 = call i32 @pthread_mutex_lock(ptr noundef %4) #4
  ret void
}

; Function Attrs: nounwind uwtable
define hidden void @opj_thread_pool_wait_completion(ptr noundef %0, i32 noundef %1) #0 {
  %3 = alloca ptr, align 8
  %4 = alloca i32, align 4
  store ptr %0, ptr %3, align 8, !tbaa !32
  store i32 %1, ptr %4, align 4, !tbaa !10
  %5 = load ptr, ptr %3, align 8, !tbaa !32
  %6 = getelementptr inbounds nuw %struct.opj_thread_pool_t, ptr %5, i32 0, i32 3
  %7 = load ptr, ptr %6, align 8, !tbaa !39
  %8 = icmp eq ptr %7, null
  br i1 %8, label %9, label %10

9:                                                ; preds = %2
  br label %38

10:                                               ; preds = %2
  %11 = load i32, ptr %4, align 4, !tbaa !10
  %12 = icmp slt i32 %11, 0
  br i1 %12, label %13, label %14

13:                                               ; preds = %10
  store i32 0, ptr %4, align 4, !tbaa !10
  br label %14

14:                                               ; preds = %13, %10
  %15 = load ptr, ptr %3, align 8, !tbaa !32
  %16 = getelementptr inbounds nuw %struct.opj_thread_pool_t, ptr %15, i32 0, i32 3
  %17 = load ptr, ptr %16, align 8, !tbaa !39
  call void @opj_mutex_lock(ptr noundef %17)
  %18 = load i32, ptr %4, align 4, !tbaa !10
  %19 = load ptr, ptr %3, align 8, !tbaa !32
  %20 = getelementptr inbounds nuw %struct.opj_thread_pool_t, ptr %19, i32 0, i32 10
  store i32 %18, ptr %20, align 8, !tbaa !64
  br label %21

21:                                               ; preds = %27, %14
  %22 = load ptr, ptr %3, align 8, !tbaa !32
  %23 = getelementptr inbounds nuw %struct.opj_thread_pool_t, ptr %22, i32 0, i32 6
  %24 = load volatile i32, ptr %23, align 8, !tbaa !65
  %25 = load i32, ptr %4, align 4, !tbaa !10
  %26 = icmp sgt i32 %24, %25
  br i1 %26, label %27, label %34

27:                                               ; preds = %21
  %28 = load ptr, ptr %3, align 8, !tbaa !32
  %29 = getelementptr inbounds nuw %struct.opj_thread_pool_t, ptr %28, i32 0, i32 2
  %30 = load ptr, ptr %29, align 8, !tbaa !40
  %31 = load ptr, ptr %3, align 8, !tbaa !32
  %32 = getelementptr inbounds nuw %struct.opj_thread_pool_t, ptr %31, i32 0, i32 3
  %33 = load ptr, ptr %32, align 8, !tbaa !39
  call void @opj_cond_wait(ptr noundef %30, ptr noundef %33)
  br label %21, !llvm.loop !70

34:                                               ; preds = %21
  %35 = load ptr, ptr %3, align 8, !tbaa !32
  %36 = getelementptr inbounds nuw %struct.opj_thread_pool_t, ptr %35, i32 0, i32 3
  %37 = load ptr, ptr %36, align 8, !tbaa !39
  call void @opj_mutex_unlock(ptr noundef %37)
  br label %38

38:                                               ; preds = %34, %9
  ret void
}