; Function Attrs: nounwind uwtable
define hidden void @opj_thread_pool_wait_completion(ptr noundef %0, i32 noundef %1) local_unnamed_addr #1 {
  %3 = getelementptr inbounds nuw i8, ptr %0, i64 24
  %4 = load ptr, ptr %3, align 8, !tbaa !30
  %5 = icmp eq ptr %4, null
  br i1 %5, label %21, label %6

6:                                                ; preds = %2
  %spec.store.select = tail call i32 @llvm.smax.i32(i32 %1, i32 0)
  %7 = tail call i32 @pthread_mutex_lock(ptr noundef nonnull %4) #8
  %8 = getelementptr inbounds nuw i8, ptr %0, i64 80
  store i32 %spec.store.select, ptr %8, align 8, !tbaa !45
  %9 = getelementptr inbounds nuw i8, ptr %0, i64 48
  %10 = load volatile i32, ptr %9, align 8, !tbaa !46
  %11 = icmp sgt i32 %10, %spec.store.select
  br i1 %11, label %.lr.ph, label %._crit_edge

.lr.ph:                                           ; preds = %6
  %12 = getelementptr inbounds nuw i8, ptr %0, i64 16
  br label %13

13:                                               ; preds = %.lr.ph, %13
  %14 = load ptr, ptr %12, align 8, !tbaa !31
  %15 = load ptr, ptr %3, align 8, !tbaa !30
  %16 = tail call i32 @pthread_cond_wait(ptr noundef %14, ptr noundef %15) #8
  %17 = load volatile i32, ptr %9, align 8, !tbaa !46
  %18 = icmp sgt i32 %17, %spec.store.select
  br i1 %18, label %13, label %._crit_edge, !llvm.loop !47

._crit_edge:                                      ; preds = %13, %6
  %19 = load ptr, ptr %3, align 8, !tbaa !30
  %20 = tail call i32 @pthread_mutex_unlock(ptr noundef %19) #8
  br label %21

21:                                               ; preds = %2, %._crit_edge
  ret void
}